EXPORTS
?getX@CvPlot@@QBEHXZ=?getViewportX@CvPlot@@QBEHXZ
?getY@CvPlot@@QBEHXZ=?getViewportY@CvPlot@@QBEHXZ
?getTerrainType@CvPlot@@QBE?AW4TerrainTypes@@XZ=?getTerrainTypeExternal@CvPlot@@QBE?AW4TerrainTypes@@XZ
?getFeatureType@CvPlot@@QBE?AW4FeatureTypes@@XZ=?getFeatureTypeExternal@CvPlot@@QBE?AW4FeatureTypes@@XZ
?isWater@CvPlot@@QBE_NXZ=?isWaterExternal@CvPlot@@QBE_NXZ
?getVisibleImprovementState@CvPlot@@QAEXAAW4ImprovementTypes@@AA_N@Z=?getVisibleImprovementState@CvPlot@@QBEXAAW4ImprovementTypes@@AA_N@Z
?getVisibleBonusState@CvPlot@@QAEXAAW4BonusTypes@@AA_N1@Z=?getVisibleBonusState@CvPlot@@QBEXAAW4BonusTypes@@AA_N1@Z
?getX@CvUnit@@QBEHXZ=?getViewportX@CvUnit@@QBEHXZ
?getY@CvUnit@@QBEHXZ=?getViewportY@CvUnit@@QBEHXZ
?plot@CvUnit@@QBEPAVCvPlot@@XZ=?plotExternal@CvUnit@@QBEPAVCvPlot@@XZ
?plot@CvSelectionGroup@@QBEPAVCvPlot@@XZ=?plotExternal@CvSelectionGroup@@QBEPAVCvPlot@@XZ
?plot@CvCity@@QBEPAVCvPlot@@XZ=?plotExternal@CvCity@@QBEPAVCvPlot@@XZ
?getX@CvCity@@QBEHXZ=?getViewportX@CvCity@@QBEHXZ
?getY@CvCity@@QBEHXZ=?getViewportY@CvCity@@QBEHXZ
?firstUnit@CvPlayer@@QBEPAVCvUnit@@PAH_N@Z=?firstUnitExternal@CvPlayer@@QBEPAVCvUnit@@PAH_N@Z
?nextUnit@CvPlayer@@QBEPAVCvUnit@@PAH_N@Z=?nextUnitExternal@CvPlayer@@QBEPAVCvUnit@@PAH_N@Z
?firstCity@CvPlayer@@QBEPAVCvCity@@PAH_N@Z=?firstCityExternal@CvPlayer@@QBEPAVCvCity@@PAH_N@Z
?nextCity@CvPlayer@@QBEPAVCvCity@@PAH_N@Z=?nextCityExternal@CvPlayer@@QBEPAVCvCity@@PAH_N@Z
?headMissionQueueNode@CvSelectionGroup@@QBEPAV?$CLLNode@UMissionData@@@@XZ=?headMissionQueueNodeExternal@CvSelectionGroup@@QBEPAV?$CLLNode@UMissionData@@@@XZ
?erasePlots@CvMap@@QAEXXZ=?erasePlots@CvMapExternal@@QAEXXZ
?findCity@CvMap@@QAEPAVCvCity@@HHW4PlayerTypes@@W4TeamTypes@@_N21W4DirectionTypes@@PAV2@@Z=?findCity@CvMapExternal@@QAEPAVCvCity@@HHW4PlayerTypes@@W4TeamTypes@@_N21W4DirectionTypes@@PAV2@@Z
?getGridHeight@CvMap@@QBEHXZ=?getGridHeight@CvMapExternal@@QBEHXZ
?getGridWidth@CvMap@@QBEHXZ=?getGridWidth@CvMapExternal@@QBEHXZ
?getWorldSize@CvMap@@QAE?AW4WorldSizeTypes@@XZ=?getWorldSize@CvMapExternal@@QAE?AW4WorldSizeTypes@@XZ
?init@CvMap@@QAEXPAUCvMapInitData@@@Z=?init@CvMapExternal@@QAEXPAUCvMapInitData@@@Z
?isPlot@CvMap@@QBE_NHH@Z=?isPlot@CvMapExternal@@QBE_NHH@Z
?isWrap@CvMap@@QAE_NXZ=?isWrap@CvMapExternal@@QAE_NXZ
?isWrapX@CvMap@@QAE_NXZ=?isWrapX@CvMapExternal@@QAE_NXZ
?isWrapY@CvMap@@QAE_NXZ=?isWrapY@CvMapExternal@@QAE_NXZ
?numPlots@CvMap@@QBEHXZ=?numPlots@CvMapExternal@@QBEHXZ
?plot@CvMap@@QBEPAVCvPlot@@HH@Z=?plot@CvMapExternal@@QBEPAVCvPlot@@HH@Z
?plotByIndex@CvMap@@QBEPAVCvPlot@@H@Z=?plotByIndex@CvMapExternal@@QBEPAVCvPlot@@H@Z
?plotXToPointX@CvMap@@QAEMH@Z=?plotXToPointX@CvMapExternal@@QAEMH@Z
?plotYToPointY@CvMap@@QAEMH@Z=?plotYToPointY@CvMapExternal@@QAEMH@Z
?pointToPlot@CvMap@@QAEPAVCvPlot@@MM@Z=?pointToPlot@CvMapExternal@@QAEPAVCvPlot@@MM@Z
?reset@CvMap@@QAEXPAUCvMapInitData@@@Z=?reset@CvMapExternal@@QAEXPAUCvMapInitData@@@Z
?setupGraphical@CvMap@@QAEXXZ=?setupGraphical@CvMapExternal@@QAEXXZ
?updateCenterUnit@CvMap@@QAEXXZ=?updateCenterUnit@CvMapExternal@@QAEXXZ
?updateFlagSymbols@CvMap@@QAEXXZ=?updateFlagSymbols@CvMapExternal@@QAEXXZ
?updateFog@CvMap@@QAEXXZ=?updateFog@CvMapExternal@@QAEXXZ
?updateMinimapColor@CvMap@@QAEXXZ=?updateMinimapColor@CvMapExternal@@QAEXXZ
?updateSymbolVisibility@CvMap@@QAEXXZ=?updateSymbolVisibility@CvMapExternal@@QAEXXZ
?getMap@CvGlobals@@QAEAAVCvMap@@XZ=?getMap@CvGlobals@@QAEAAVCvMapExternal@@XZ
?getBestDefender@CvPlot@@QBEPAVCvUnit@@W4PlayerTypes@@0PBV2@_N22@Z=?getBestDefenderExternal@CvPlot@@QBEPAVCvUnit@@W4PlayerTypes@@0PBV2@_N22@Z
?setAIAutoPlay@CvGame@@QAEXH@Z=?setAIAutoPlayExternal@CvGame@@QAEXH@Z
?lastMissionPlot@CvSelectionGroup@@QAEPAVCvPlot@@XZ=?_lastMissionPlot@CvSelectionGroup@@QAEPAVCvPlot@@XZ
?canAllMove@CvSelectionGroup@@QAE_NXZ=?_canAllMove@CvSelectionGroup@@QAE_NXZ
?isBusy@CvSelectionGroup@@QAE_NXZ=?_isBusy@CvSelectionGroup@@QAE_NXZ
?canMoveInto@CvSelectionGroup@@QAE_NPAVCvPlot@@_N@Z=?_canMoveInto@CvSelectionGroup@@QAE_NPAVCvPlot@@_N@Z
?canMoveOrAttackInto@CvSelectionGroup@@QAE_NPAVCvPlot@@_N@Z=?_canMoveOrAttackInto@CvSelectionGroup@@QAE_NPAVCvPlot@@_N@Z